; Function Attrs: nounwind uwtable
define internal i32 @sm2_asym_encrypt(ptr noundef %0, ptr noundef %1, ptr noundef %2, i64 %3, ptr noundef %4, i64 noundef %5) #0 {
  %7 = getelementptr inbounds nuw i8, ptr %0, i64 16
  %8 = tail call ptr @ossl_prov_digest_md(ptr noundef nonnull %7) #5
  %9 = icmp eq ptr %8, null
  br i1 %9, label %sm2_get_md.exit, label %sm2_get_md.exit.thread

sm2_get_md.exit:                                  ; preds = %6
  %10 = load ptr, ptr %0, align 8, !tbaa !3
  %11 = tail call ptr @ossl_prov_digest_fetch(ptr noundef nonnull %7, ptr noundef %10, ptr noundef nonnull @.str.1, ptr noundef null) #5
  %12 = icmp eq ptr %11, null
  br i1 %12, label %21, label %sm2_get_md.exit.thread

sm2_get_md.exit.thread:                           ; preds = %6, %sm2_get_md.exit
  %.0.i17 = phi ptr [ %11, %sm2_get_md.exit ], [ %8, %6 ]
  %13 = icmp eq ptr %1, null
  %14 = getelementptr inbounds nuw i8, ptr %0, i64 8
  %15 = load ptr, ptr %14, align 8, !tbaa !13
  br i1 %13, label %16, label %19

16:                                               ; preds = %sm2_get_md.exit.thread
  %17 = tail call i32 @ossl_sm2_ciphertext_size(ptr noundef %15, ptr noundef nonnull %.0.i17, i64 noundef %5, ptr noundef %2) #5
  %.not = icmp eq i32 %17, 0
  br i1 %.not, label %18, label %21

18:                                               ; preds = %16
  tail call void @ERR_new() #5
  tail call void @ERR_set_debug(ptr noundef nonnull @.str, i32 noundef 94, ptr noundef nonnull @__func__.sm2_asym_encrypt) #5
  tail call void (i32, i32, ptr, ...) @ERR_set_error(i32 noundef 57, i32 noundef 158, ptr noundef null) #5
  br label %21

19:                                               ; preds = %sm2_get_md.exit.thread
  %20 = tail call i32 @ossl_sm2_encrypt(ptr noundef %15, ptr noundef nonnull %.0.i17, ptr noundef %4, i64 noundef %5, ptr noundef nonnull %1, ptr noundef %2) #5
  br label %21

21:                                               ; preds = %16, %sm2_get_md.exit, %19, %18
  %.0 = phi i32 [ 0, %18 ], [ %20, %19 ], [ 0, %sm2_get_md.exit ], [ 1, %16 ]
  ret i32 %.0
}